#include <math.h>
#include <stdio.h>
#include <stdlib.h>
#include <string.h>
#include <iostream>
using namespace std;

char m[100002];
int main()
{
	int n;
	cin>>n;
	getchar();
	for(int i=0;i<n;i++)
	{
		int b[28]={0};
		scanf("%s",m);
		int len=strlen(m);
		for(int j=0;j<len;j++)
			b[m[j]-'a']++;
		int f=0;
		for(int j=0;j<len;j++)
		{
			if(b[m[j]-'a']==1)
			{
				f++;
				cout<<m[j]<<endl;
				break;
			}
		}
		if(f<=0)
			cout<<"no"<<endl;
	}
	return 0;
}