; ModuleID = 'source-C-CXX/36/1951.cpp'
source_filename = "source-C-CXX/36/1951.cpp"
target datalayout = "e-m:e-p270:32:32-p271:32:32-p272:64:64-i64:64-f80:128-n8:16:32:64-S128"
target triple = "x86_64-pc-linux-gnu"

%"class.std::ios_base::Init" = type { i8 }
%"class.std::basic_istream" = type { i32 (...)**, i64, %"class.std::basic_ios" }
%"class.std::basic_ios" = type { %"class.std::ios_base", %"class.std::basic_ostream"*, i8, i8, %"class.std::basic_streambuf"*, %"class.std::ctype"*, %"class.std::num_put"*, %"class.std::num_get"* }
%"class.std::ios_base" = type { i32 (...)**, i64, i64, i32, i32, i32, %"struct.std::ios_base::_Callback_list"*, %"struct.std::ios_base::_Words", [8 x %"struct.std::ios_base::_Words"], i32, %"struct.std::ios_base::_Words"*, %"class.std::locale" }
%"struct.std::ios_base::_Callback_list" = type { %"struct.std::ios_base::_Callback_list"*, void (i32, %"class.std::ios_base"*, i32)*, i32, i32 }
%"struct.std::ios_base::_Words" = type { i8*, i64 }
%"class.std::locale" = type { %"class.std::locale::_Impl"* }
%"class.std::locale::_Impl" = type { i32, %"class.std::locale::facet"**, i64, %"class.std::locale::facet"**, i8** }
%"class.std::locale::facet" = type <{ i32 (...)**, i32, [4 x i8] }>
%"class.std::basic_ostream" = type { i32 (...)**, %"class.std::basic_ios" }
%"class.std::basic_streambuf" = type { i32 (...)**, i8*, i8*, i8*, i8*, i8*, i8*, %"class.std::locale" }
%"class.std::ctype" = type <{ %"class.std::locale::facet.base", [4 x i8], %struct.__locale_struct*, i8, [7 x i8], i32*, i32*, i16*, i8, [256 x i8], [256 x i8], i8, [6 x i8] }>
%"class.std::locale::facet.base" = type <{ i32 (...)**, i32 }>
%struct.__locale_struct = type { [13 x %struct.__locale_data*], i16*, i32*, i32*, [13 x i8*] }
%struct.__locale_data = type opaque
%"class.std::num_put" = type { %"class.std::locale::facet.base", [4 x i8] }
%"class.std::num_get" = type { %"class.std::locale::facet.base", [4 x i8] }
%struct._IO_FILE = type { i32, i8*, i8*, i8*, i8*, i8*, i8*, i8*, i8*, i8*, i8*, i8*, %struct._IO_marker*, %struct._IO_FILE*, i32, i32, i64, i16, i8, [1 x i8], i8*, i64, %struct._IO_codecvt*, %struct._IO_wide_data*, %struct._IO_FILE*, i8*, i64, i32, [20 x i8] }
%struct._IO_marker = type opaque
%struct._IO_codecvt = type opaque
%struct._IO_wide_data = type opaque

@_ZStL8__ioinit = internal global %"class.std::ios_base::Init" zeroinitializer, align 1
@__dso_handle = external hidden global i8
@m = dso_local global [100002 x i8] zeroinitializer, align 16
@_ZSt3cin = external global %"class.std::basic_istream", align 8
@.str = private unnamed_addr constant [3 x i8] c"%s\00", align 1
@_ZSt4cout = external global %"class.std::basic_ostream", align 8
@.str.1 = private unnamed_addr constant [3 x i8] c"no\00", align 1
@stdin = external local_unnamed_addr global %struct._IO_FILE*, align 8
@llvm.global_ctors = appending global [1 x { i32, void ()*, i8* }] [{ i32, void ()*, i8* } { i32 65535, void ()* @_GLOBAL__sub_I_1951.cpp, i8* null }]

declare void @_ZNSt8ios_base4InitC1Ev(%"class.std::ios_base::Init"* nonnull align 1 dereferenceable(1)) unnamed_addr #0

; Function Attrs: nounwind
declare void @_ZNSt8ios_base4InitD1Ev(%"class.std::ios_base::Init"* nonnull align 1 dereferenceable(1)) unnamed_addr #1

; Function Attrs: nofree nounwind
declare i32 @__cxa_atexit(void (i8*)*, i8*, i8*) local_unnamed_addr #2

; Function Attrs: mustprogress norecurse sspstrong uwtable
define dso_local i32 @main() local_unnamed_addr #3 {
  %1 = alloca i8, align 1
  %2 = alloca i32, align 4
  %3 = alloca [28 x i32], align 16
  %4 = bitcast i32* %2 to i8*
  call void @llvm.lifetime.start.p0i8(i64 4, i8* nonnull %4) #10
  %5 = call nonnull align 8 dereferenceable(16) %"class.std::basic_istream"* @_ZNSirsERi(%"class.std::basic_istream"* nonnull align 8 dereferenceable(16) @_ZSt3cin, i32* nonnull align 4 dereferenceable(4) %2)
  %6 = load %struct._IO_FILE*, %struct._IO_FILE** @stdin, align 8, !tbaa !5
  %7 = call i32 @getc(%struct._IO_FILE* %6)
  %8 = bitcast [28 x i32]* %3 to i8*
  %9 = load i32, i32* %2, align 4, !tbaa !9
  %10 = icmp sgt i32 %9, 0
  br i1 %10, label %12, label %11

11:                                               ; preds = %129, %0
  call void @llvm.lifetime.end.p0i8(i64 4, i8* nonnull %4) #10
  ret i32 0

12:                                               ; preds = %0, %129
  %13 = phi i32 [ %132, %129 ], [ 0, %0 ]
  call void @llvm.lifetime.start.p0i8(i64 112, i8* nonnull %8) #10
  call void @llvm.memset.p0i8.i64(i8* noundef nonnull align 16 dereferenceable(112) %8, i8 0, i64 112, i1 false)
  %14 = call i32 (i8*, ...) @__isoc99_scanf(i8* getelementptr inbounds ([3 x i8], [3 x i8]* @.str, i64 0, i64 0), i8* getelementptr inbounds ([100002 x i8], [100002 x i8]* @m, i64 0, i64 0))
  %15 = call i64 @strlen(i8* noundef nonnull dereferenceable(1) getelementptr inbounds ([100002 x i8], [100002 x i8]* @m, i64 0, i64 0)) #11
  %16 = trunc i64 %15 to i32
  %17 = icmp sgt i32 %16, 0
  br i1 %17, label %18, label %101

18:                                               ; preds = %12
  %19 = and i64 %15, 4294967295
  %20 = and i64 %15, 1
  %21 = icmp eq i64 %19, 1
  br i1 %21, label %24, label %22

22:                                               ; preds = %18
  %23 = sub nsw i64 %19, %20
  br label %38

24:                                               ; preds = %38, %18
  %25 = phi i64 [ 0, %18 ], [ %56, %38 ]
  %26 = icmp eq i64 %20, 0
  br i1 %26, label %35, label %27

27:                                               ; preds = %24
  %28 = getelementptr inbounds [100002 x i8], [100002 x i8]* @m, i64 0, i64 %25
  %29 = load i8, i8* %28, align 1, !tbaa !11
  %30 = sext i8 %29 to i64
  %31 = add nsw i64 %30, -97
  %32 = getelementptr inbounds [28 x i32], [28 x i32]* %3, i64 0, i64 %31
  %33 = load i32, i32* %32, align 4, !tbaa !9
  %34 = add nsw i32 %33, 1
  store i32 %34, i32* %32, align 4, !tbaa !9
  br label %35

35:                                               ; preds = %24, %27
  br i1 %17, label %36, label %101

36:                                               ; preds = %35
  %37 = and i64 %15, 4294967295
  br label %61

38:                                               ; preds = %38, %22
  %39 = phi i64 [ 0, %22 ], [ %56, %38 ]
  %40 = phi i64 [ %23, %22 ], [ %57, %38 ]
  %41 = getelementptr inbounds [100002 x i8], [100002 x i8]* @m, i64 0, i64 %39
  %42 = load i8, i8* %41, align 2, !tbaa !11
  %43 = sext i8 %42 to i64
  %44 = add nsw i64 %43, -97
  %45 = getelementptr inbounds [28 x i32], [28 x i32]* %3, i64 0, i64 %44
  %46 = load i32, i32* %45, align 4, !tbaa !9
  %47 = add nsw i32 %46, 1
  store i32 %47, i32* %45, align 4, !tbaa !9
  %48 = or i64 %39, 1
  %49 = getelementptr inbounds [100002 x i8], [100002 x i8]* @m, i64 0, i64 %48
  %50 = load i8, i8* %49, align 1, !tbaa !11
  %51 = sext i8 %50 to i64
  %52 = add nsw i64 %51, -97
  %53 = getelementptr inbounds [28 x i32], [28 x i32]* %3, i64 0, i64 %52
  %54 = load i32, i32* %53, align 4, !tbaa !9
  %55 = add nsw i32 %54, 1
  store i32 %55, i32* %53, align 4, !tbaa !9
  %56 = add nuw nsw i64 %39, 2
  %57 = add i64 %40, -2
  %58 = icmp eq i64 %57, 0
  br i1 %58, label %24, label %38, !llvm.loop !12

59:                                               ; preds = %61
  %60 = icmp eq i64 %70, %37
  br i1 %60, label %101, label %61, !llvm.loop !14

61:                                               ; preds = %36, %59
  %62 = phi i64 [ 0, %36 ], [ %70, %59 ]
  %63 = getelementptr inbounds [100002 x i8], [100002 x i8]* @m, i64 0, i64 %62
  %64 = load i8, i8* %63, align 1, !tbaa !11
  %65 = sext i8 %64 to i64
  %66 = add nsw i64 %65, -97
  %67 = getelementptr inbounds [28 x i32], [28 x i32]* %3, i64 0, i64 %66
  %68 = load i32, i32* %67, align 4, !tbaa !9
  %69 = icmp eq i32 %68, 1
  %70 = add nuw nsw i64 %62, 1
  br i1 %69, label %71, label %59

71:                                               ; preds = %61
  call void @llvm.lifetime.start.p0i8(i64 1, i8* nonnull %1)
  store i8 %64, i8* %1, align 1, !tbaa !11
  %72 = call nonnull align 8 dereferenceable(8) %"class.std::basic_ostream"* @_ZSt16__ostream_insertIcSt11char_traitsIcEERSt13basic_ostreamIT_T0_ES6_PKS3_l(%"class.std::basic_ostream"* nonnull align 8 dereferenceable(8) @_ZSt4cout, i8* nonnull %1, i64 1)
  call void @llvm.lifetime.end.p0i8(i64 1, i8* nonnull %1)
  %73 = bitcast %"class.std::basic_ostream"* %72 to i8**
  %74 = load i8*, i8** %73, align 8, !tbaa !15
  %75 = getelementptr i8, i8* %74, i64 -24
  %76 = bitcast i8* %75 to i64*
  %77 = load i64, i64* %76, align 8
  %78 = bitcast %"class.std::basic_ostream"* %72 to i8*
  %79 = add nsw i64 %77, 240
  %80 = getelementptr inbounds i8, i8* %78, i64 %79
  %81 = bitcast i8* %80 to %"class.std::ctype"**
  %82 = load %"class.std::ctype"*, %"class.std::ctype"** %81, align 8, !tbaa !17
  %83 = icmp eq %"class.std::ctype"* %82, null
  br i1 %83, label %84, label %85

84:                                               ; preds = %71
  call void @_ZSt16__throw_bad_castv() #12
  unreachable

85:                                               ; preds = %71
  %86 = getelementptr inbounds %"class.std::ctype", %"class.std::ctype"* %82, i64 0, i32 8
  %87 = load i8, i8* %86, align 8, !tbaa !20
  %88 = icmp eq i8 %87, 0
  br i1 %88, label %92, label %89

89:                                               ; preds = %85
  %90 = getelementptr inbounds %"class.std::ctype", %"class.std::ctype"* %82, i64 0, i32 9, i64 10
  %91 = load i8, i8* %90, align 1, !tbaa !11
  br label %98

92:                                               ; preds = %85
  call void @_ZNKSt5ctypeIcE13_M_widen_initEv(%"class.std::ctype"* nonnull align 8 dereferenceable(570) %82)
  %93 = bitcast %"class.std::ctype"* %82 to i8 (%"class.std::ctype"*, i8)***
  %94 = load i8 (%"class.std::ctype"*, i8)**, i8 (%"class.std::ctype"*, i8)*** %93, align 8, !tbaa !15
  %95 = getelementptr inbounds i8 (%"class.std::ctype"*, i8)*, i8 (%"class.std::ctype"*, i8)** %94, i64 6
  %96 = load i8 (%"class.std::ctype"*, i8)*, i8 (%"class.std::ctype"*, i8)** %95, align 8
  %97 = call signext i8 %96(%"class.std::ctype"* nonnull align 8 dereferenceable(570) %82, i8 signext 10)
  br label %98

98:                                               ; preds = %89, %92
  %99 = phi i8 [ %91, %89 ], [ %97, %92 ]
  %100 = call nonnull align 8 dereferenceable(8) %"class.std::basic_ostream"* @_ZNSo3putEc(%"class.std::basic_ostream"* nonnull align 8 dereferenceable(8) %72, i8 signext %99)
  br label %129

101:                                              ; preds = %59, %12, %35
  %102 = call nonnull align 8 dereferenceable(8) %"class.std::basic_ostream"* @_ZSt16__ostream_insertIcSt11char_traitsIcEERSt13basic_ostreamIT_T0_ES6_PKS3_l(%"class.std::basic_ostream"* nonnull align 8 dereferenceable(8) @_ZSt4cout, i8* nonnull getelementptr inbounds ([3 x i8], [3 x i8]* @.str.1, i64 0, i64 0), i64 2)
  %103 = load i8*, i8** bitcast (%"class.std::basic_ostream"* @_ZSt4cout to i8**), align 8, !tbaa !15
  %104 = getelementptr i8, i8* %103, i64 -24
  %105 = bitcast i8* %104 to i64*
  %106 = load i64, i64* %105, align 8
  %107 = add nsw i64 %106, 240
  %108 = getelementptr inbounds i8, i8* bitcast (%"class.std::basic_ostream"* @_ZSt4cout to i8*), i64 %107
  %109 = bitcast i8* %108 to %"class.std::ctype"**
  %110 = load %"class.std::ctype"*, %"class.std::ctype"** %109, align 8, !tbaa !17
  %111 = icmp eq %"class.std::ctype"* %110, null
  br i1 %111, label %112, label %113

112:                                              ; preds = %101
  call void @_ZSt16__throw_bad_castv() #12
  unreachable

113:                                              ; preds = %101
  %114 = getelementptr inbounds %"class.std::ctype", %"class.std::ctype"* %110, i64 0, i32 8
  %115 = load i8, i8* %114, align 8, !tbaa !20
  %116 = icmp eq i8 %115, 0
  br i1 %116, label %120, label %117

117:                                              ; preds = %113
  %118 = getelementptr inbounds %"class.std::ctype", %"class.std::ctype"* %110, i64 0, i32 9, i64 10
  %119 = load i8, i8* %118, align 1, !tbaa !11
  br label %126

120:                                              ; preds = %113
  call void @_ZNKSt5ctypeIcE13_M_widen_initEv(%"class.std::ctype"* nonnull align 8 dereferenceable(570) %110)
  %121 = bitcast %"class.std::ctype"* %110 to i8 (%"class.std::ctype"*, i8)***
  %122 = load i8 (%"class.std::ctype"*, i8)**, i8 (%"class.std::ctype"*, i8)*** %121, align 8, !tbaa !15
  %123 = getelementptr inbounds i8 (%"class.std::ctype"*, i8)*, i8 (%"class.std::ctype"*, i8)** %122, i64 6
  %124 = load i8 (%"class.std::ctype"*, i8)*, i8 (%"class.std::ctype"*, i8)** %123, align 8
  %125 = call signext i8 %124(%"class.std::ctype"* nonnull align 8 dereferenceable(570) %110, i8 signext 10)
  br label %126

126:                                              ; preds = %117, %120
  %127 = phi i8 [ %119, %117 ], [ %125, %120 ]
  %128 = call nonnull align 8 dereferenceable(8) %"class.std::basic_ostream"* @_ZNSo3putEc(%"class.std::basic_ostream"* nonnull align 8 dereferenceable(8) @_ZSt4cout, i8 signext %127)
  br label %129

129:                                              ; preds = %98, %126
  %130 = phi %"class.std::basic_ostream"* [ %100, %98 ], [ %128, %126 ]
  %131 = call nonnull align 8 dereferenceable(8) %"class.std::basic_ostream"* @_ZNSo5flushEv(%"class.std::basic_ostream"* nonnull align 8 dereferenceable(8) %130)
  call void @llvm.lifetime.end.p0i8(i64 112, i8* nonnull %8) #10
  %132 = add nuw nsw i32 %13, 1
  %133 = load i32, i32* %2, align 4, !tbaa !9
  %134 = icmp slt i32 %132, %133
  br i1 %134, label %12, label %11, !llvm.loop !22
}

; Function Attrs: argmemonly mustprogress nofree nosync nounwind willreturn
declare void @llvm.lifetime.start.p0i8(i64 immarg, i8* nocapture) #4

declare nonnull align 8 dereferenceable(16) %"class.std::basic_istream"* @_ZNSirsERi(%"class.std::basic_istream"* nonnull align 8 dereferenceable(16), i32* nonnull align 4 dereferenceable(4)) local_unnamed_addr #0

; Function Attrs: argmemonly mustprogress nofree nounwind willreturn writeonly
declare void @llvm.memset.p0i8.i64(i8* nocapture writeonly, i8, i64, i1 immarg) #5

; Function Attrs: nofree nounwind
declare noundef i32 @__isoc99_scanf(i8* nocapture noundef readonly, ...) local_unnamed_addr #6

; Function Attrs: argmemonly mustprogress nofree nounwind readonly willreturn
declare i64 @strlen(i8* nocapture) local_unnamed_addr #7

; Function Attrs: argmemonly mustprogress nofree nosync nounwind willreturn
declare void @llvm.lifetime.end.p0i8(i64 immarg, i8* nocapture) #4

; Function Attrs: nofree nounwind
declare noundef i32 @getc(%struct._IO_FILE* nocapture noundef) local_unnamed_addr #6

declare nonnull align 8 dereferenceable(8) %"class.std::basic_ostream"* @_ZSt16__ostream_insertIcSt11char_traitsIcEERSt13basic_ostreamIT_T0_ES6_PKS3_l(%"class.std::basic_ostream"* nonnull align 8 dereferenceable(8), i8*, i64) local_unnamed_addr #0

declare nonnull align 8 dereferenceable(8) %"class.std::basic_ostream"* @_ZNSo3putEc(%"class.std::basic_ostream"* nonnull align 8 dereferenceable(8), i8 signext) local_unnamed_addr #0

declare nonnull align 8 dereferenceable(8) %"class.std::basic_ostream"* @_ZNSo5flushEv(%"class.std::basic_ostream"* nonnull align 8 dereferenceable(8)) local_unnamed_addr #0

; Function Attrs: noreturn
declare void @_ZSt16__throw_bad_castv() local_unnamed_addr #8

declare void @_ZNKSt5ctypeIcE13_M_widen_initEv(%"class.std::ctype"* nonnull align 8 dereferenceable(570)) local_unnamed_addr #0

; Function Attrs: sspstrong uwtable
define internal void @_GLOBAL__sub_I_1951.cpp() #9 section ".text.startup" {
  tail call void @_ZNSt8ios_base4InitC1Ev(%"class.std::ios_base::Init"* nonnull align 1 dereferenceable(1) @_ZStL8__ioinit)
  %1 = tail call i32 @__cxa_atexit(void (i8*)* bitcast (void (%"class.std::ios_base::Init"*)* @_ZNSt8ios_base4InitD1Ev to void (i8*)*), i8* getelementptr inbounds (%"class.std::ios_base::Init", %"class.std::ios_base::Init"* @_ZStL8__ioinit, i64 0, i32 0), i8* nonnull @__dso_handle) #10
  ret void
}


!llvm.module.flags = !{!0, !1, !2, !3}
!llvm.ident = !{!4}

!0 = !{i32 1, !"wchar_size", i32 4}
!1 = !{i32 7, !"PIC Level", i32 2}
!2 = !{i32 7, !"PIE Level", i32 2}
!3 = !{i32 7, !"uwtable", i32 1}
!4 = !{!"clang version 13.0.0"}
!5 = !{!6, !6, i64 0}
!6 = !{!"any pointer", !7, i64 0}
!7 = !{!"omnipotent char", !8, i64 0}
!8 = !{!"Simple C++ TBAA"}
!9 = !{!10, !10, i64 0}
!10 = !{!"int", !7, i64 0}
!11 = !{!7, !7, i64 0}
!12 = distinct !{!12, !13}
!13 = !{!"llvm.loop.mustprogress"}
!14 = distinct !{!14, !13}
!15 = !{!16, !16, i64 0}
!16 = !{!"vtable pointer", !8, i64 0}
!17 = !{!18, !6, i64 240}
!18 = !{!"_ZTSSt9basic_iosIcSt11char_traitsIcEE", !6, i64 216, !7, i64 224, !19, i64 225, !6, i64 232, !6, i64 240, !6, i64 248, !6, i64 256}
!19 = !{!"bool", !7, i64 0}
!20 = !{!21, !7, i64 56}
!21 = !{!"_ZTSSt5ctypeIcE", !6, i64 16, !19, i64 24, !6, i64 32, !6, i64 40, !6, i64 48, !7, i64 56, !7, i64 57, !7, i64 313, !7, i64 569}
!22 = distinct !{!22, !13}
